
can_testprogram.elf:     file format elf32-avr

Sections:
Idx Name          Size      VMA       LMA       File off  Algn
  0 .text         00000590  00000000  00000000  00000054  2**1
                  CONTENTS, ALLOC, LOAD, READONLY, CODE
  1 .debug_aranges 00000120  00000000  00000000  000005e4  2**0
                  CONTENTS, READONLY, DEBUGGING
  2 .debug_pubnames 000001f6  00000000  00000000  00000704  2**0
                  CONTENTS, READONLY, DEBUGGING
  3 .debug_info   00000d8c  00000000  00000000  000008fa  2**0
                  CONTENTS, READONLY, DEBUGGING
  4 .debug_abbrev 00000815  00000000  00000000  00001686  2**0
                  CONTENTS, READONLY, DEBUGGING
  5 .debug_line   00000d20  00000000  00000000  00001e9b  2**0
                  CONTENTS, READONLY, DEBUGGING
  6 .debug_frame  00000180  00000000  00000000  00002bbc  2**2
                  CONTENTS, READONLY, DEBUGGING
  7 .debug_str    000003e2  00000000  00000000  00002d3c  2**0
                  CONTENTS, READONLY, DEBUGGING
  8 .debug_loc    00000413  00000000  00000000  0000311e  2**0
                  CONTENTS, READONLY, DEBUGGING
  9 .debug_ranges 00000038  00000000  00000000  00003531  2**0
                  CONTENTS, READONLY, DEBUGGING

Disassembly of section .text:

00000000 <__vectors>:
   0:	0c 94 46 00 	jmp	0x8c	; 0x8c <__ctors_end>
   4:	0c 94 50 00 	jmp	0xa0	; 0xa0 <__bad_interrupt>
   8:	0c 94 50 00 	jmp	0xa0	; 0xa0 <__bad_interrupt>
   c:	0c 94 50 00 	jmp	0xa0	; 0xa0 <__bad_interrupt>
  10:	0c 94 50 00 	jmp	0xa0	; 0xa0 <__bad_interrupt>
  14:	0c 94 50 00 	jmp	0xa0	; 0xa0 <__bad_interrupt>
  18:	0c 94 50 00 	jmp	0xa0	; 0xa0 <__bad_interrupt>
  1c:	0c 94 50 00 	jmp	0xa0	; 0xa0 <__bad_interrupt>
  20:	0c 94 50 00 	jmp	0xa0	; 0xa0 <__bad_interrupt>
  24:	0c 94 50 00 	jmp	0xa0	; 0xa0 <__bad_interrupt>
  28:	0c 94 50 00 	jmp	0xa0	; 0xa0 <__bad_interrupt>
  2c:	0c 94 50 00 	jmp	0xa0	; 0xa0 <__bad_interrupt>
  30:	0c 94 50 00 	jmp	0xa0	; 0xa0 <__bad_interrupt>
  34:	0c 94 50 00 	jmp	0xa0	; 0xa0 <__bad_interrupt>
  38:	0c 94 50 00 	jmp	0xa0	; 0xa0 <__bad_interrupt>
  3c:	0c 94 50 00 	jmp	0xa0	; 0xa0 <__bad_interrupt>
  40:	0c 94 50 00 	jmp	0xa0	; 0xa0 <__bad_interrupt>
  44:	0c 94 50 00 	jmp	0xa0	; 0xa0 <__bad_interrupt>
  48:	0c 94 50 00 	jmp	0xa0	; 0xa0 <__bad_interrupt>
  4c:	0c 94 50 00 	jmp	0xa0	; 0xa0 <__bad_interrupt>
  50:	0c 94 50 00 	jmp	0xa0	; 0xa0 <__bad_interrupt>

00000054 <can_filter>:
	...
  5c:	00 08 00 00 00 08 00 00 00 08 00 00 00 08 00 00     ................
  6c:	00 00 00 00 00 08 00 00                             ........

00000074 <_mcp2515_cnf>:
  74:	04 b6 e7 04 b6 d3 04 b6 c7 04 b6 c3 02 90 07 03     ................
  84:	ac 81 03 ac 80 02 90 00                             ........

0000008c <__ctors_end>:
  8c:	11 24       	eor	r1, r1
  8e:	1f be       	out	0x3f, r1	; 63
  90:	cf e5       	ldi	r28, 0x5F	; 95
  92:	d8 e0       	ldi	r29, 0x08	; 8
  94:	de bf       	out	0x3e, r29	; 62
  96:	cd bf       	out	0x3d, r28	; 61
  98:	0e 94 52 00 	call	0xa4	; 0xa4 <main>
  9c:	0c 94 c6 02 	jmp	0x58c	; 0x58c <_exit>

000000a0 <__bad_interrupt>:
  a0:	0c 94 00 00 	jmp	0	; 0x0 <__vectors>

000000a4 <main>:

// -----------------------------------------------------------------------------
// Main loop for receiving and sending messages.

int main(void)
{
  a4:	0f 93       	push	r16
  a6:	1f 93       	push	r17
  a8:	df 93       	push	r29
  aa:	cf 93       	push	r28
  ac:	cd b7       	in	r28, 0x3d	; 61
  ae:	de b7       	in	r29, 0x3e	; 62
  b0:	6c 97       	sbiw	r28, 0x1c	; 28
  b2:	0f b6       	in	r0, 0x3f	; 63
  b4:	f8 94       	cli
  b6:	de bf       	out	0x3e, r29	; 62
  b8:	0f be       	out	0x3f, r0	; 63
  ba:	cd bf       	out	0x3d, r28	; 61
	// Initialize MCP2515
	can_init(BITRATE_125_KBPS);
  bc:	84 e0       	ldi	r24, 0x04	; 4
  be:	0e 94 db 00 	call	0x1b6	; 0x1b6 <can_init>
	
	// Load filters and masks
	can_static_filter(can_filter);
  c2:	84 e5       	ldi	r24, 0x54	; 84
  c4:	90 e0       	ldi	r25, 0x00	; 0
  c6:	0e 94 f9 01 	call	0x3f2	; 0x3f2 <can_static_filter>
	
	// Create a test messsage
	can_t msg;
	
	msg.id = 0x123456;
  ca:	86 e5       	ldi	r24, 0x56	; 86
  cc:	94 e3       	ldi	r25, 0x34	; 52
  ce:	a2 e1       	ldi	r26, 0x12	; 18
  d0:	b0 e0       	ldi	r27, 0x00	; 0
  d2:	89 83       	std	Y+1, r24	; 0x01
  d4:	9a 83       	std	Y+2, r25	; 0x02
  d6:	ab 83       	std	Y+3, r26	; 0x03
  d8:	bc 83       	std	Y+4, r27	; 0x04
	msg.flags.rtr = 0;
  da:	8d 81       	ldd	r24, Y+5	; 0x05
  dc:	8e 7f       	andi	r24, 0xFE	; 254
	msg.flags.extended = 1;
  de:	82 60       	ori	r24, 0x02	; 2
  e0:	8d 83       	std	Y+5, r24	; 0x05
	
	msg.length = 4;
  e2:	84 e0       	ldi	r24, 0x04	; 4
  e4:	8e 83       	std	Y+6, r24	; 0x06
	msg.data[0] = 0xde;
  e6:	8e ed       	ldi	r24, 0xDE	; 222
  e8:	8f 83       	std	Y+7, r24	; 0x07
	msg.data[1] = 0xad;
  ea:	8d ea       	ldi	r24, 0xAD	; 173
  ec:	88 87       	std	Y+8, r24	; 0x08
	msg.data[2] = 0xbe;
  ee:	8e eb       	ldi	r24, 0xBE	; 190
  f0:	89 87       	std	Y+9, r24	; 0x09
	msg.data[3] = 0xef;
  f2:	8f ee       	ldi	r24, 0xEF	; 239
  f4:	8a 87       	std	Y+10, r24	; 0x0a
	
	// Send the message
	can_send_message(&msg);
  f6:	ce 01       	movw	r24, r28
  f8:	01 96       	adiw	r24, 0x01	; 1
  fa:	0e 94 a9 01 	call	0x352	; 0x352 <can_send_message>
		if (can_check_message())
		{
			can_t msg;
			
			// Try to read the message
			if (can_get_message(&msg))
  fe:	8e 01       	movw	r16, r28
 100:	01 5f       	subi	r16, 0xF1	; 241
 102:	1f 4f       	sbci	r17, 0xFF	; 255
	can_send_message(&msg);
	
	while (1)
	{
		// Check if a new messag was received
		if (can_check_message())
 104:	0e 94 3e 01 	call	0x27c	; 0x27c <can_check_message>
 108:	88 23       	and	r24, r24
 10a:	e1 f3       	breq	.-8      	; 0x104 <main+0x60>
		{
			can_t msg;
			
			// Try to read the message
			if (can_get_message(&msg))
 10c:	c8 01       	movw	r24, r16
 10e:	0e 94 4e 01 	call	0x29c	; 0x29c <can_get_message>
 112:	88 23       	and	r24, r24
 114:	b9 f3       	breq	.-18     	; 0x104 <main+0x60>
			{
				// If we received a message resend it with a different id
				msg.id += 10;
 116:	8f 85       	ldd	r24, Y+15	; 0x0f
 118:	98 89       	ldd	r25, Y+16	; 0x10
 11a:	a9 89       	ldd	r26, Y+17	; 0x11
 11c:	ba 89       	ldd	r27, Y+18	; 0x12
 11e:	0a 96       	adiw	r24, 0x0a	; 10
 120:	a1 1d       	adc	r26, r1
 122:	b1 1d       	adc	r27, r1
 124:	8f 87       	std	Y+15, r24	; 0x0f
 126:	98 8b       	std	Y+16, r25	; 0x10
 128:	a9 8b       	std	Y+17, r26	; 0x11
 12a:	ba 8b       	std	Y+18, r27	; 0x12
				
				// Send the new message
				can_send_message(&msg);
 12c:	c8 01       	movw	r24, r16
 12e:	0e 94 a9 01 	call	0x352	; 0x352 <can_send_message>
 132:	e8 cf       	rjmp	.-48     	; 0x104 <main+0x60>

00000134 <mcp2515_read_status>:
 134:	c4 98       	cbi	0x18, 4	; 24
 136:	0e 94 c1 02 	call	0x582	; 0x582 <spi_putc>
 13a:	8f ef       	ldi	r24, 0xFF	; 255
 13c:	0e 94 c1 02 	call	0x582	; 0x582 <spi_putc>
 140:	c4 9a       	sbi	0x18, 4	; 24
 142:	08 95       	ret

00000144 <mcp2515_bit_modify>:
 144:	ff 92       	push	r15
 146:	0f 93       	push	r16
 148:	1f 93       	push	r17
 14a:	18 2f       	mov	r17, r24
 14c:	06 2f       	mov	r16, r22
 14e:	f4 2e       	mov	r15, r20
 150:	c4 98       	cbi	0x18, 4	; 24
 152:	85 e0       	ldi	r24, 0x05	; 5
 154:	0e 94 c1 02 	call	0x582	; 0x582 <spi_putc>
 158:	81 2f       	mov	r24, r17
 15a:	0e 94 c1 02 	call	0x582	; 0x582 <spi_putc>
 15e:	80 2f       	mov	r24, r16
 160:	0e 94 c1 02 	call	0x582	; 0x582 <spi_putc>
 164:	8f 2d       	mov	r24, r15
 166:	0e 94 c1 02 	call	0x582	; 0x582 <spi_putc>
 16a:	c4 9a       	sbi	0x18, 4	; 24
 16c:	1f 91       	pop	r17
 16e:	0f 91       	pop	r16
 170:	ff 90       	pop	r15
 172:	08 95       	ret

00000174 <mcp2515_read_register>:
 174:	1f 93       	push	r17
 176:	18 2f       	mov	r17, r24
 178:	c4 98       	cbi	0x18, 4	; 24
 17a:	83 e0       	ldi	r24, 0x03	; 3
 17c:	0e 94 c1 02 	call	0x582	; 0x582 <spi_putc>
 180:	81 2f       	mov	r24, r17
 182:	0e 94 c1 02 	call	0x582	; 0x582 <spi_putc>
 186:	8f ef       	ldi	r24, 0xFF	; 255
 188:	0e 94 c1 02 	call	0x582	; 0x582 <spi_putc>
 18c:	c4 9a       	sbi	0x18, 4	; 24
 18e:	1f 91       	pop	r17
 190:	08 95       	ret

00000192 <mcp2515_write_register>:
 192:	0f 93       	push	r16
 194:	1f 93       	push	r17
 196:	18 2f       	mov	r17, r24
 198:	06 2f       	mov	r16, r22
 19a:	c4 98       	cbi	0x18, 4	; 24
 19c:	82 e0       	ldi	r24, 0x02	; 2
 19e:	0e 94 c1 02 	call	0x582	; 0x582 <spi_putc>
 1a2:	81 2f       	mov	r24, r17
 1a4:	0e 94 c1 02 	call	0x582	; 0x582 <spi_putc>
 1a8:	80 2f       	mov	r24, r16
 1aa:	0e 94 c1 02 	call	0x582	; 0x582 <spi_putc>
 1ae:	c4 9a       	sbi	0x18, 4	; 24
 1b0:	1f 91       	pop	r17
 1b2:	0f 91       	pop	r16
 1b4:	08 95       	ret

000001b6 <can_init>:
 1b6:	0f 93       	push	r16
 1b8:	1f 93       	push	r17
 1ba:	cf 93       	push	r28
 1bc:	df 93       	push	r29
 1be:	18 2f       	mov	r17, r24
 1c0:	88 30       	cpi	r24, 0x08	; 8
 1c2:	08 f0       	brcs	.+2      	; 0x1c6 <can_init+0x10>
 1c4:	55 c0       	rjmp	.+170    	; 0x270 <can_init+0xba>
 1c6:	c4 9a       	sbi	0x18, 4	; 24
 1c8:	bc 9a       	sbi	0x17, 4	; 23
 1ca:	c7 98       	cbi	0x18, 7	; 24
 1cc:	c5 98       	cbi	0x18, 5	; 24
 1ce:	c6 98       	cbi	0x18, 6	; 24
 1d0:	bf 9a       	sbi	0x17, 7	; 23
 1d2:	bd 9a       	sbi	0x17, 5	; 23
 1d4:	be 98       	cbi	0x17, 6	; 23
 1d6:	0e 94 bc 02 	call	0x578	; 0x578 <mcp2515_spi_init>
 1da:	c4 98       	cbi	0x18, 4	; 24
 1dc:	80 ec       	ldi	r24, 0xC0	; 192
 1de:	0e 94 c1 02 	call	0x582	; 0x582 <spi_putc>
 1e2:	86 e6       	ldi	r24, 0x66	; 102
 1e4:	9e e0       	ldi	r25, 0x0E	; 14
 1e6:	01 97       	sbiw	r24, 0x01	; 1
 1e8:	f1 f7       	brne	.-4      	; 0x1e6 <can_init+0x30>
 1ea:	c4 9a       	sbi	0x18, 4	; 24
 1ec:	80 e0       	ldi	r24, 0x00	; 0
 1ee:	90 e9       	ldi	r25, 0x90	; 144
 1f0:	01 97       	sbiw	r24, 0x01	; 1
 1f2:	f1 f7       	brne	.-4      	; 0x1f0 <can_init+0x3a>
 1f4:	c4 98       	cbi	0x18, 4	; 24
 1f6:	82 e0       	ldi	r24, 0x02	; 2
 1f8:	0e 94 c1 02 	call	0x582	; 0x582 <spi_putc>
 1fc:	88 e2       	ldi	r24, 0x28	; 40
 1fe:	0e 94 c1 02 	call	0x582	; 0x582 <spi_putc>
 202:	e3 e0       	ldi	r30, 0x03	; 3
 204:	1e 9f       	mul	r17, r30
 206:	e0 01       	movw	r28, r0
 208:	11 24       	eor	r1, r1
 20a:	fe 01       	movw	r30, r28
 20c:	ec 58       	subi	r30, 0x8C	; 140
 20e:	ff 4f       	sbci	r31, 0xFF	; 255
 210:	e4 91       	lpm	r30, Z+
 212:	8e 2f       	mov	r24, r30
 214:	0e 94 c1 02 	call	0x582	; 0x582 <spi_putc>
 218:	fe 01       	movw	r30, r28
 21a:	eb 58       	subi	r30, 0x8B	; 139
 21c:	ff 4f       	sbci	r31, 0xFF	; 255
 21e:	04 91       	lpm	r16, Z+
 220:	80 2f       	mov	r24, r16
 222:	0e 94 c1 02 	call	0x582	; 0x582 <spi_putc>
 226:	ca 58       	subi	r28, 0x8A	; 138
 228:	df 4f       	sbci	r29, 0xFF	; 255
 22a:	fe 01       	movw	r30, r28
 22c:	84 91       	lpm	r24, Z+
 22e:	0e 94 c1 02 	call	0x582	; 0x582 <spi_putc>
 232:	83 e0       	ldi	r24, 0x03	; 3
 234:	0e 94 c1 02 	call	0x582	; 0x582 <spi_putc>
 238:	c4 9a       	sbi	0x18, 4	; 24
 23a:	8d e0       	ldi	r24, 0x0D	; 13
 23c:	60 e0       	ldi	r22, 0x00	; 0
 23e:	0e 94 c9 00 	call	0x192	; 0x192 <mcp2515_write_register>
 242:	ba 98       	cbi	0x17, 2	; 23
 244:	c2 9a       	sbi	0x18, 2	; 24
 246:	8c e0       	ldi	r24, 0x0C	; 12
 248:	60 e0       	ldi	r22, 0x00	; 0
 24a:	0e 94 c9 00 	call	0x192	; 0x192 <mcp2515_write_register>
 24e:	89 e2       	ldi	r24, 0x29	; 41
 250:	0e 94 ba 00 	call	0x174	; 0x174 <mcp2515_read_register>
 254:	18 2f       	mov	r17, r24
 256:	8f e0       	ldi	r24, 0x0F	; 15
 258:	60 e0       	ldi	r22, 0x00	; 0
 25a:	0e 94 c9 00 	call	0x192	; 0x192 <mcp2515_write_register>
 25e:	10 17       	cp	r17, r16
 260:	39 f4       	brne	.+14     	; 0x270 <can_init+0xba>
 262:	8e e0       	ldi	r24, 0x0E	; 14
 264:	0e 94 ba 00 	call	0x174	; 0x174 <mcp2515_read_register>
 268:	80 7e       	andi	r24, 0xE0	; 224
 26a:	d9 f7       	brne	.-10     	; 0x262 <can_init+0xac>
 26c:	81 e0       	ldi	r24, 0x01	; 1
 26e:	01 c0       	rjmp	.+2      	; 0x272 <can_init+0xbc>
 270:	80 e0       	ldi	r24, 0x00	; 0
 272:	df 91       	pop	r29
 274:	cf 91       	pop	r28
 276:	1f 91       	pop	r17
 278:	0f 91       	pop	r16
 27a:	08 95       	ret

0000027c <can_check_message>:
 27c:	86 b3       	in	r24, 0x16	; 22
 27e:	86 95       	lsr	r24
 280:	86 95       	lsr	r24
 282:	80 95       	com	r24
 284:	81 70       	andi	r24, 0x01	; 1
 286:	08 95       	ret

00000288 <can_check_free_buffer>:
 288:	80 ea       	ldi	r24, 0xA0	; 160
 28a:	0e 94 9a 00 	call	0x134	; 0x134 <mcp2515_read_status>
 28e:	90 e0       	ldi	r25, 0x00	; 0
 290:	84 75       	andi	r24, 0x54	; 84
 292:	84 35       	cpi	r24, 0x54	; 84
 294:	09 f0       	breq	.+2      	; 0x298 <can_check_free_buffer+0x10>
 296:	91 e0       	ldi	r25, 0x01	; 1
 298:	89 2f       	mov	r24, r25
 29a:	08 95       	ret

0000029c <can_get_message>:
 29c:	cf 92       	push	r12
 29e:	df 92       	push	r13
 2a0:	ff 92       	push	r15
 2a2:	0f 93       	push	r16
 2a4:	1f 93       	push	r17
 2a6:	cf 93       	push	r28
 2a8:	df 93       	push	r29
 2aa:	ec 01       	movw	r28, r24
 2ac:	80 eb       	ldi	r24, 0xB0	; 176
 2ae:	0e 94 9a 00 	call	0x134	; 0x134 <mcp2515_read_status>
 2b2:	f8 2e       	mov	r15, r24
 2b4:	08 2f       	mov	r16, r24
 2b6:	10 e0       	ldi	r17, 0x00	; 0
 2b8:	20 e4       	ldi	r18, 0x40	; 64
 2ba:	c2 2e       	mov	r12, r18
 2bc:	d1 2c       	mov	r13, r1
 2be:	c0 22       	and	r12, r16
 2c0:	d1 22       	and	r13, r17
 2c2:	86 ff       	sbrs	r24, 6
 2c4:	02 c0       	rjmp	.+4      	; 0x2ca <can_get_message+0x2e>
 2c6:	80 e9       	ldi	r24, 0x90	; 144
 2c8:	05 c0       	rjmp	.+10     	; 0x2d4 <can_get_message+0x38>
 2ca:	87 fd       	sbrc	r24, 7
 2cc:	02 c0       	rjmp	.+4      	; 0x2d2 <can_get_message+0x36>
 2ce:	80 e0       	ldi	r24, 0x00	; 0
 2d0:	38 c0       	rjmp	.+112    	; 0x342 <can_get_message+0xa6>
 2d2:	84 e9       	ldi	r24, 0x94	; 148
 2d4:	c4 98       	cbi	0x18, 4	; 24
 2d6:	0e 94 c1 02 	call	0x582	; 0x582 <spi_putc>
 2da:	ce 01       	movw	r24, r28
 2dc:	0e 94 6f 02 	call	0x4de	; 0x4de <mcp2515_read_id>
 2e0:	81 70       	andi	r24, 0x01	; 1
 2e2:	88 0f       	add	r24, r24
 2e4:	9c 81       	ldd	r25, Y+4	; 0x04
 2e6:	9d 7f       	andi	r25, 0xFD	; 253
 2e8:	98 2b       	or	r25, r24
 2ea:	9c 83       	std	Y+4, r25	; 0x04
 2ec:	8f ef       	ldi	r24, 0xFF	; 255
 2ee:	0e 94 c1 02 	call	0x582	; 0x582 <spi_putc>
 2f2:	93 e0       	ldi	r25, 0x03	; 3
 2f4:	16 95       	lsr	r17
 2f6:	07 95       	ror	r16
 2f8:	9a 95       	dec	r25
 2fa:	e1 f7       	brne	.-8      	; 0x2f4 <can_get_message+0x58>
 2fc:	20 2f       	mov	r18, r16
 2fe:	21 70       	andi	r18, 0x01	; 1
 300:	9c 81       	ldd	r25, Y+4	; 0x04
 302:	9e 7f       	andi	r25, 0xFE	; 254
 304:	92 2b       	or	r25, r18
 306:	9c 83       	std	Y+4, r25	; 0x04
 308:	08 2f       	mov	r16, r24
 30a:	0f 70       	andi	r16, 0x0F	; 15
 30c:	0d 83       	std	Y+5, r16	; 0x05
 30e:	10 e0       	ldi	r17, 0x00	; 0
 310:	08 c0       	rjmp	.+16     	; 0x322 <can_get_message+0x86>
 312:	8f ef       	ldi	r24, 0xFF	; 255
 314:	0e 94 c1 02 	call	0x582	; 0x582 <spi_putc>
 318:	fe 01       	movw	r30, r28
 31a:	e1 0f       	add	r30, r17
 31c:	f1 1d       	adc	r31, r1
 31e:	86 83       	std	Z+6, r24	; 0x06
 320:	1f 5f       	subi	r17, 0xFF	; 255
 322:	10 17       	cp	r17, r16
 324:	b0 f3       	brcs	.-20     	; 0x312 <can_get_message+0x76>
 326:	c4 9a       	sbi	0x18, 4	; 24
 328:	cd 28       	or	r12, r13
 32a:	19 f0       	breq	.+6      	; 0x332 <can_get_message+0x96>
 32c:	8c e2       	ldi	r24, 0x2C	; 44
 32e:	61 e0       	ldi	r22, 0x01	; 1
 330:	02 c0       	rjmp	.+4      	; 0x336 <can_get_message+0x9a>
 332:	8c e2       	ldi	r24, 0x2C	; 44
 334:	62 e0       	ldi	r22, 0x02	; 2
 336:	40 e0       	ldi	r20, 0x00	; 0
 338:	0e 94 a2 00 	call	0x144	; 0x144 <mcp2515_bit_modify>
 33c:	8f 2d       	mov	r24, r15
 33e:	87 70       	andi	r24, 0x07	; 7
 340:	8f 5f       	subi	r24, 0xFF	; 255
 342:	df 91       	pop	r29
 344:	cf 91       	pop	r28
 346:	1f 91       	pop	r17
 348:	0f 91       	pop	r16
 34a:	ff 90       	pop	r15
 34c:	df 90       	pop	r13
 34e:	cf 90       	pop	r12
 350:	08 95       	ret

00000352 <can_send_message>:
 352:	ff 92       	push	r15
 354:	0f 93       	push	r16
 356:	1f 93       	push	r17
 358:	cf 93       	push	r28
 35a:	df 93       	push	r29
 35c:	ec 01       	movw	r28, r24
 35e:	80 ea       	ldi	r24, 0xA0	; 160
 360:	0e 94 9a 00 	call	0x134	; 0x134 <mcp2515_read_status>
 364:	82 fd       	sbrc	r24, 2
 366:	02 c0       	rjmp	.+4      	; 0x36c <can_send_message+0x1a>
 368:	ff 24       	eor	r15, r15
 36a:	0b c0       	rjmp	.+22     	; 0x382 <can_send_message+0x30>
 36c:	84 fd       	sbrc	r24, 4
 36e:	03 c0       	rjmp	.+6      	; 0x376 <can_send_message+0x24>
 370:	92 e0       	ldi	r25, 0x02	; 2
 372:	f9 2e       	mov	r15, r25
 374:	06 c0       	rjmp	.+12     	; 0x382 <can_send_message+0x30>
 376:	86 ff       	sbrs	r24, 6
 378:	02 c0       	rjmp	.+4      	; 0x37e <can_send_message+0x2c>
 37a:	ff 24       	eor	r15, r15
 37c:	33 c0       	rjmp	.+102    	; 0x3e4 <can_send_message+0x92>
 37e:	84 e0       	ldi	r24, 0x04	; 4
 380:	f8 2e       	mov	r15, r24
 382:	c4 98       	cbi	0x18, 4	; 24
 384:	8f 2d       	mov	r24, r15
 386:	80 64       	ori	r24, 0x40	; 64
 388:	0e 94 c1 02 	call	0x582	; 0x582 <spi_putc>
 38c:	6c 81       	ldd	r22, Y+4	; 0x04
 38e:	66 95       	lsr	r22
 390:	61 70       	andi	r22, 0x01	; 1
 392:	ce 01       	movw	r24, r28
 394:	0e 94 35 02 	call	0x46a	; 0x46a <mcp2515_write_id>
 398:	0d 81       	ldd	r16, Y+5	; 0x05
 39a:	0f 70       	andi	r16, 0x0F	; 15
 39c:	8c 81       	ldd	r24, Y+4	; 0x04
 39e:	80 ff       	sbrs	r24, 0
 3a0:	05 c0       	rjmp	.+10     	; 0x3ac <can_send_message+0x5a>
 3a2:	80 2f       	mov	r24, r16
 3a4:	80 64       	ori	r24, 0x40	; 64
 3a6:	0e 94 c1 02 	call	0x582	; 0x582 <spi_putc>
 3aa:	0e c0       	rjmp	.+28     	; 0x3c8 <can_send_message+0x76>
 3ac:	80 2f       	mov	r24, r16
 3ae:	0e 94 c1 02 	call	0x582	; 0x582 <spi_putc>
 3b2:	10 e0       	ldi	r17, 0x00	; 0
 3b4:	07 c0       	rjmp	.+14     	; 0x3c4 <can_send_message+0x72>
 3b6:	fe 01       	movw	r30, r28
 3b8:	e1 0f       	add	r30, r17
 3ba:	f1 1d       	adc	r31, r1
 3bc:	86 81       	ldd	r24, Z+6	; 0x06
 3be:	0e 94 c1 02 	call	0x582	; 0x582 <spi_putc>
 3c2:	1f 5f       	subi	r17, 0xFF	; 255
 3c4:	10 17       	cp	r17, r16
 3c6:	b8 f3       	brcs	.-18     	; 0x3b6 <can_send_message+0x64>
 3c8:	c4 9a       	sbi	0x18, 4	; 24
 3ca:	84 e0       	ldi	r24, 0x04	; 4
 3cc:	8a 95       	dec	r24
 3ce:	f1 f7       	brne	.-4      	; 0x3cc <can_send_message+0x7a>
 3d0:	c4 98       	cbi	0x18, 4	; 24
 3d2:	ff 20       	and	r15, r15
 3d4:	11 f4       	brne	.+4      	; 0x3da <can_send_message+0x88>
 3d6:	ff 24       	eor	r15, r15
 3d8:	f3 94       	inc	r15
 3da:	8f 2d       	mov	r24, r15
 3dc:	80 68       	ori	r24, 0x80	; 128
 3de:	0e 94 c1 02 	call	0x582	; 0x582 <spi_putc>
 3e2:	c4 9a       	sbi	0x18, 4	; 24
 3e4:	8f 2d       	mov	r24, r15
 3e6:	df 91       	pop	r29
 3e8:	cf 91       	pop	r28
 3ea:	1f 91       	pop	r17
 3ec:	0f 91       	pop	r16
 3ee:	ff 90       	pop	r15
 3f0:	08 95       	ret

000003f2 <can_static_filter>:
 3f2:	0f 93       	push	r16
 3f4:	1f 93       	push	r17
 3f6:	cf 93       	push	r28
 3f8:	df 93       	push	r29
 3fa:	ec 01       	movw	r28, r24
 3fc:	8f e0       	ldi	r24, 0x0F	; 15
 3fe:	60 ee       	ldi	r22, 0xE0	; 224
 400:	40 e8       	ldi	r20, 0x80	; 128
 402:	0e 94 a2 00 	call	0x144	; 0x144 <mcp2515_bit_modify>
 406:	8e e0       	ldi	r24, 0x0E	; 14
 408:	0e 94 ba 00 	call	0x174	; 0x174 <mcp2515_read_register>
 40c:	80 7e       	andi	r24, 0xE0	; 224
 40e:	80 38       	cpi	r24, 0x80	; 128
 410:	d1 f7       	brne	.-12     	; 0x406 <can_static_filter+0x14>
 412:	80 e6       	ldi	r24, 0x60	; 96
 414:	64 e0       	ldi	r22, 0x04	; 4
 416:	0e 94 c9 00 	call	0x192	; 0x192 <mcp2515_write_register>
 41a:	80 e7       	ldi	r24, 0x70	; 112
 41c:	60 e0       	ldi	r22, 0x00	; 0
 41e:	0e 94 c9 00 	call	0x192	; 0x192 <mcp2515_write_register>
 422:	00 e0       	ldi	r16, 0x00	; 0
 424:	c4 98       	cbi	0x18, 4	; 24
 426:	82 e0       	ldi	r24, 0x02	; 2
 428:	0e 94 c1 02 	call	0x582	; 0x582 <spi_putc>
 42c:	80 2f       	mov	r24, r16
 42e:	0e 94 c1 02 	call	0x582	; 0x582 <spi_putc>
 432:	10 e0       	ldi	r17, 0x00	; 0
 434:	00 32       	cpi	r16, 0x20	; 32
 436:	11 f4       	brne	.+4      	; 0x43c <can_static_filter+0x4a>
 438:	18 30       	cpi	r17, 0x08	; 8
 43a:	48 f4       	brcc	.+18     	; 0x44e <can_static_filter+0x5c>
 43c:	fe 01       	movw	r30, r28
 43e:	21 96       	adiw	r28, 0x01	; 1
 440:	e4 91       	lpm	r30, Z+
 442:	8e 2f       	mov	r24, r30
 444:	0e 94 c1 02 	call	0x582	; 0x582 <spi_putc>
 448:	1f 5f       	subi	r17, 0xFF	; 255
 44a:	1c 30       	cpi	r17, 0x0C	; 12
 44c:	99 f7       	brne	.-26     	; 0x434 <can_static_filter+0x42>
 44e:	c4 9a       	sbi	0x18, 4	; 24
 450:	00 5f       	subi	r16, 0xF0	; 240
 452:	00 33       	cpi	r16, 0x30	; 48
 454:	39 f7       	brne	.-50     	; 0x424 <can_static_filter+0x32>
 456:	8f e0       	ldi	r24, 0x0F	; 15
 458:	60 ee       	ldi	r22, 0xE0	; 224
 45a:	40 e0       	ldi	r20, 0x00	; 0
 45c:	0e 94 a2 00 	call	0x144	; 0x144 <mcp2515_bit_modify>
 460:	df 91       	pop	r29
 462:	cf 91       	pop	r28
 464:	1f 91       	pop	r17
 466:	0f 91       	pop	r16
 468:	08 95       	ret

0000046a <mcp2515_write_id>:
 46a:	cf 93       	push	r28
 46c:	df 93       	push	r29
 46e:	ec 01       	movw	r28, r24
 470:	66 23       	and	r22, r22
 472:	d9 f0       	breq	.+54     	; 0x4aa <mcp2515_write_id+0x40>
 474:	8a 81       	ldd	r24, Y+2	; 0x02
 476:	9b 81       	ldd	r25, Y+3	; 0x03
 478:	35 e0       	ldi	r19, 0x05	; 5
 47a:	96 95       	lsr	r25
 47c:	87 95       	ror	r24
 47e:	3a 95       	dec	r19
 480:	e1 f7       	brne	.-8      	; 0x47a <mcp2515_write_id+0x10>
 482:	8f b9       	out	0x0f, r24	; 15
 484:	9a 81       	ldd	r25, Y+2	; 0x02
 486:	77 9b       	sbis	0x0e, 7	; 14
 488:	fe cf       	rjmp	.-4      	; 0x486 <mcp2515_write_id+0x1c>
 48a:	8f b1       	in	r24, 0x0f	; 15
 48c:	89 2f       	mov	r24, r25
 48e:	88 0f       	add	r24, r24
 490:	88 0f       	add	r24, r24
 492:	88 0f       	add	r24, r24
 494:	80 7e       	andi	r24, 0xE0	; 224
 496:	88 60       	ori	r24, 0x08	; 8
 498:	93 70       	andi	r25, 0x03	; 3
 49a:	89 2b       	or	r24, r25
 49c:	0e 94 c1 02 	call	0x582	; 0x582 <spi_putc>
 4a0:	89 81       	ldd	r24, Y+1	; 0x01
 4a2:	0e 94 c1 02 	call	0x582	; 0x582 <spi_putc>
 4a6:	88 81       	ld	r24, Y
 4a8:	15 c0       	rjmp	.+42     	; 0x4d4 <mcp2515_write_id+0x6a>
 4aa:	88 81       	ld	r24, Y
 4ac:	99 81       	ldd	r25, Y+1	; 0x01
 4ae:	23 e0       	ldi	r18, 0x03	; 3
 4b0:	96 95       	lsr	r25
 4b2:	87 95       	ror	r24
 4b4:	2a 95       	dec	r18
 4b6:	e1 f7       	brne	.-8      	; 0x4b0 <mcp2515_write_id+0x46>
 4b8:	8f b9       	out	0x0f, r24	; 15
 4ba:	88 81       	ld	r24, Y
 4bc:	77 9b       	sbis	0x0e, 7	; 14
 4be:	fe cf       	rjmp	.-4      	; 0x4bc <mcp2515_write_id+0x52>
 4c0:	9f b1       	in	r25, 0x0f	; 15
 4c2:	82 95       	swap	r24
 4c4:	88 0f       	add	r24, r24
 4c6:	80 7e       	andi	r24, 0xE0	; 224
 4c8:	0e 94 c1 02 	call	0x582	; 0x582 <spi_putc>
 4cc:	80 e0       	ldi	r24, 0x00	; 0
 4ce:	0e 94 c1 02 	call	0x582	; 0x582 <spi_putc>
 4d2:	80 e0       	ldi	r24, 0x00	; 0
 4d4:	0e 94 c1 02 	call	0x582	; 0x582 <spi_putc>
 4d8:	df 91       	pop	r29
 4da:	cf 91       	pop	r28
 4dc:	08 95       	ret

000004de <mcp2515_read_id>:
 4de:	1f 93       	push	r17
 4e0:	cf 93       	push	r28
 4e2:	df 93       	push	r29
 4e4:	ec 01       	movw	r28, r24
 4e6:	8f ef       	ldi	r24, 0xFF	; 255
 4e8:	0e 94 c1 02 	call	0x582	; 0x582 <spi_putc>
 4ec:	18 2f       	mov	r17, r24
 4ee:	8f ef       	ldi	r24, 0xFF	; 255
 4f0:	0e 94 c1 02 	call	0x582	; 0x582 <spi_putc>
 4f4:	48 2f       	mov	r20, r24
 4f6:	21 2f       	mov	r18, r17
 4f8:	30 e0       	ldi	r19, 0x00	; 0
 4fa:	83 ff       	sbrs	r24, 3
 4fc:	1f c0       	rjmp	.+62     	; 0x53c <mcp2515_read_id+0x5e>
 4fe:	8f ef       	ldi	r24, 0xFF	; 255
 500:	8f b9       	out	0x0f, r24	; 15
 502:	95 e0       	ldi	r25, 0x05	; 5
 504:	22 0f       	add	r18, r18
 506:	33 1f       	adc	r19, r19
 508:	9a 95       	dec	r25
 50a:	e1 f7       	brne	.-8      	; 0x504 <mcp2515_read_id+0x26>
 50c:	3b 83       	std	Y+3, r19	; 0x03
 50e:	2a 83       	std	Y+2, r18	; 0x02
 510:	77 9b       	sbis	0x0e, 7	; 14
 512:	fe cf       	rjmp	.-4      	; 0x510 <mcp2515_read_id+0x32>
 514:	8f b1       	in	r24, 0x0f	; 15
 516:	89 83       	std	Y+1, r24	; 0x01
 518:	8f ef       	ldi	r24, 0xFF	; 255
 51a:	8f b9       	out	0x0f, r24	; 15
 51c:	84 2f       	mov	r24, r20
 51e:	83 70       	andi	r24, 0x03	; 3
 520:	9a 81       	ldd	r25, Y+2	; 0x02
 522:	89 2b       	or	r24, r25
 524:	46 95       	lsr	r20
 526:	46 95       	lsr	r20
 528:	46 95       	lsr	r20
 52a:	4c 71       	andi	r20, 0x1C	; 28
 52c:	84 2b       	or	r24, r20
 52e:	8a 83       	std	Y+2, r24	; 0x02
 530:	77 9b       	sbis	0x0e, 7	; 14
 532:	fe cf       	rjmp	.-4      	; 0x530 <mcp2515_read_id+0x52>
 534:	8f b1       	in	r24, 0x0f	; 15
 536:	88 83       	st	Y, r24
 538:	81 e0       	ldi	r24, 0x01	; 1
 53a:	1a c0       	rjmp	.+52     	; 0x570 <mcp2515_read_id+0x92>
 53c:	8f ef       	ldi	r24, 0xFF	; 255
 53e:	8f b9       	out	0x0f, r24	; 15
 540:	1b 82       	std	Y+3, r1	; 0x03
 542:	1a 82       	std	Y+2, r1	; 0x02
 544:	83 e0       	ldi	r24, 0x03	; 3
 546:	22 0f       	add	r18, r18
 548:	33 1f       	adc	r19, r19
 54a:	8a 95       	dec	r24
 54c:	e1 f7       	brne	.-8      	; 0x546 <mcp2515_read_id+0x68>
 54e:	39 83       	std	Y+1, r19	; 0x01
 550:	28 83       	st	Y, r18
 552:	77 9b       	sbis	0x0e, 7	; 14
 554:	fe cf       	rjmp	.-4      	; 0x552 <mcp2515_read_id+0x74>
 556:	8f b1       	in	r24, 0x0f	; 15
 558:	8f ef       	ldi	r24, 0xFF	; 255
 55a:	8f b9       	out	0x0f, r24	; 15
 55c:	42 95       	swap	r20
 55e:	46 95       	lsr	r20
 560:	47 70       	andi	r20, 0x07	; 7
 562:	88 81       	ld	r24, Y
 564:	84 2b       	or	r24, r20
 566:	88 83       	st	Y, r24
 568:	77 9b       	sbis	0x0e, 7	; 14
 56a:	fe cf       	rjmp	.-4      	; 0x568 <mcp2515_read_id+0x8a>
 56c:	8f b1       	in	r24, 0x0f	; 15
 56e:	80 e0       	ldi	r24, 0x00	; 0
 570:	df 91       	pop	r29
 572:	cf 91       	pop	r28
 574:	1f 91       	pop	r17
 576:	08 95       	ret

00000578 <mcp2515_spi_init>:
 578:	81 e5       	ldi	r24, 0x51	; 81
 57a:	8d b9       	out	0x0d, r24	; 13
 57c:	81 e0       	ldi	r24, 0x01	; 1
 57e:	8e b9       	out	0x0e, r24	; 14
 580:	08 95       	ret

00000582 <spi_putc>:
 582:	8f b9       	out	0x0f, r24	; 15
 584:	77 9b       	sbis	0x0e, 7	; 14
 586:	fe cf       	rjmp	.-4      	; 0x584 <spi_putc+0x2>
 588:	8f b1       	in	r24, 0x0f	; 15
 58a:	08 95       	ret

0000058c <_exit>:
 58c:	f8 94       	cli

0000058e <__stop_program>:
 58e:	ff cf       	rjmp	.-2      	; 0x58e <__stop_program>
